; Function Attrs: inlinehint mustprogress uwtable
define internal fastcc noundef signext i16 @_ZN2cv7optflowL13estimateScaleERNS_3MatE(ptr noundef nonnull align 8 dereferenceable(96) %0) unnamed_addr #15 personality ptr @__gxx_personality_v0 {
  %2 = alloca %"class.cv::Mat", align 8
  %3 = alloca %"class.cv::MatExpr", align 8
  call void @llvm.lifetime.start.p0(i64 96, ptr nonnull %2) #22
  call void @llvm.lifetime.start.p0(i64 352, ptr nonnull %3) #22
  call void @_ZN2cv3absERKNS_3MatE(ptr dead_on_unwind nonnull writable sret(%"class.cv::MatExpr") align 8 %3, ptr noundef nonnull align 8 dereferenceable(96) %0)
  call void @_ZN2cv3MatC1Ev(ptr noundef nonnull align 8 dereferenceable(96) %2) #22
  %4 = load ptr, ptr %3, align 8, !tbaa !129, !noalias !434
  %5 = load ptr, ptr %4, align 8, !tbaa !138
  %6 = getelementptr inbounds nuw i8, ptr %5, i64 24
  %7 = load ptr, ptr %6, align 8
  invoke void %7(ptr noundef nonnull align 8 dereferenceable(8) %4, ptr noundef nonnull align 8 dereferenceable(352) %3, ptr noundef nonnull align 8 dereferenceable(96) %2, i32 noundef -1)
          to label %_ZNK2cv7MatExprcvNS_3MatEEv.exit unwind label %.body

.body:                                            ; preds = %1
  %8 = landingpad { ptr, i32 }
          cleanup
  call void @_ZN2cv3MatD1Ev(ptr noundef nonnull align 8 dereferenceable(96) %2) #22
  call void @_ZN2cv7MatExprD2Ev(ptr noundef nonnull align 8 dereferenceable(352) %3) #22
  call void @llvm.lifetime.end.p0(i64 352, ptr nonnull %3) #22
  br label %19

_ZNK2cv7MatExprcvNS_3MatEEv.exit:                 ; preds = %1
  %9 = getelementptr inbounds nuw i8, ptr %3, i64 208
  call void @_ZN2cv3MatD1Ev(ptr noundef nonnull align 8 dereferenceable(96) %9) #22
  %10 = getelementptr inbounds nuw i8, ptr %3, i64 112
  call void @_ZN2cv3MatD1Ev(ptr noundef nonnull align 8 dereferenceable(96) %10) #22
  %11 = getelementptr inbounds nuw i8, ptr %3, i64 16
  call void @_ZN2cv3MatD1Ev(ptr noundef nonnull align 8 dereferenceable(96) %11) #22
  call void @llvm.lifetime.end.p0(i64 352, ptr nonnull %3) #22
  %12 = getelementptr inbounds nuw i8, ptr %2, i64 8
  %13 = load i32, ptr %12, align 8, !tbaa !45
  %14 = sdiv i32 %13, 2
  %15 = invoke noundef signext i16 @_Z11quickselectIsET_RKN2cv3MatEi(ptr noundef nonnull align 8 dereferenceable(96) %2, i32 noundef %14)
          to label %16 unwind label %17

16:                                               ; preds = %_ZNK2cv7MatExprcvNS_3MatEEv.exit
  call void @_ZN2cv3MatD1Ev(ptr noundef nonnull align 8 dereferenceable(96) %2) #22
  call void @llvm.lifetime.end.p0(i64 96, ptr nonnull %2) #22
  ret i16 %15

17:                                               ; preds = %_ZNK2cv7MatExprcvNS_3MatEEv.exit
  %18 = landingpad { ptr, i32 }
          cleanup
  call void @_ZN2cv3MatD1Ev(ptr noundef nonnull align 8 dereferenceable(96) %2) #22
  br label %19

19:                                               ; preds = %17, %.body
  %.pn = phi { ptr, i32 } [ %18, %17 ], [ %8, %.body ]
  call void @llvm.lifetime.end.p0(i64 96, ptr nonnull %2) #22
  resume { ptr, i32 } %.pn
}